; Function Attrs: mustprogress nounwind uwtable
define internal fastcc { ptr, i8 } @_ZN12_GLOBAL__N_121ConstantLValueEmitter24VisitCompoundLiteralExprEPKN5clang19CompoundLiteralExprE(ptr noundef nonnull readonly align 8 captures(none) dereferenceable(33) %0, ptr noundef %1) unnamed_addr #1 align 2 {
  %3 = alloca %"class.clang::CodeGen::ConstantEmitter", align 8
  %4 = alloca %"class.clang::CodeGen::ConstantAddress", align 8
  %5 = load ptr, ptr %0, align 8
  %6 = getelementptr inbounds nuw i8, ptr %0, i64 8
  %7 = load ptr, ptr %6, align 8
  %8 = getelementptr inbounds nuw i8, ptr %7, i64 8
  %9 = load ptr, ptr %8, align 8
  store ptr %5, ptr %3, align 8
  %10 = getelementptr inbounds nuw i8, ptr %3, i64 8
  store ptr %9, ptr %10, align 8
  %11 = getelementptr inbounds nuw i8, ptr %3, i64 16
  %12 = getelementptr inbounds nuw i8, ptr %3, i64 24
  store i32 0, ptr %12, align 8
  %13 = getelementptr inbounds nuw i8, ptr %3, i64 32
  %14 = getelementptr inbounds nuw i8, ptr %3, i64 48
  call void @llvm.memset.p0.i64(ptr noundef nonnull align 8 dereferenceable(5) %11, i8 0, i64 5, i1 false)
  call void @_ZN4llvm15SmallVectorBaseIjEC2EPvm(ptr noundef nonnull align 8 dereferenceable(80) %13, ptr noundef nonnull %14, i64 noundef 4) #20
  %15 = load ptr, ptr %6, align 8
  %16 = getelementptr inbounds nuw i8, ptr %15, i64 20
  %17 = load i8, ptr %16, align 4
  %18 = and i8 %17, 1
  %19 = getelementptr inbounds nuw i8, ptr %3, i64 20
  store i8 %18, ptr %19, align 4
  call fastcc void @_ZN12_GLOBAL__N_128tryEmitGlobalCompoundLiteralERN5clang7CodeGen15ConstantEmitterEPKNS0_19CompoundLiteralExprE(ptr dead_on_unwind noalias nonnull writable align 8 %4, ptr noundef nonnull align 8 dereferenceable(112) %3, ptr noundef %1)
  %.val = load i64, ptr %4, align 8
  %20 = and i64 %.val, -8
  %21 = inttoptr i64 %20 to ptr
  call void @_ZN5clang7CodeGen15ConstantEmitterD1Ev(ptr noundef nonnull align 8 dereferenceable(112) %3) #20
  %.fca.0.insert = insertvalue { ptr, i8 } poison, ptr %21, 0
  %.fca.1.insert = insertvalue { ptr, i8 } %.fca.0.insert, i8 0, 1
  ret { ptr, i8 } %.fca.1.insert
}